target datalayout = "e-m:e-p270:32:32-p271:32:32-p272:64:64-i64:64-i128:128-f80:128-n8:16:32:64-S128"
target triple = "x86_64-pc-linux-gnu"

%struct.XLogRecordBuffer = type { i64, i64, ptr }
%struct.LogicalDecodingContext = type { ptr, ptr, ptr, ptr, ptr, i8, %struct.OutputPluginCallbacks, %struct.OutputPluginOptions, ptr, ptr, ptr, ptr, ptr, ptr, ptr, i8, i8, i8, i8, i8, i64, i32, i8, i8 }
%struct.OutputPluginCallbacks = type { ptr, ptr, ptr, ptr, ptr, ptr, ptr, ptr, ptr, ptr, ptr, ptr, ptr, ptr, ptr, ptr, ptr, ptr, ptr, ptr, ptr }
%struct.OutputPluginOptions = type { i32, i8 }
%struct.XLogReaderState = type { %struct.XLogReaderRoutine, i64, ptr, i64, i64, i64, i64, i64, i64, i64, i64, ptr, ptr, i64, i8, ptr, ptr, ptr, ptr, ptr, i32, %struct.WALSegmentContext, %struct.WALOpenSegment, i32, i64, i32, i64, i32, i64, i32, ptr, i32, ptr, i8, i8 }
%struct.XLogReaderRoutine = type { ptr, ptr, ptr }
%struct.WALSegmentContext = type { [1024 x i8], i32 }
%struct.WALOpenSegment = type { i32, i64, i32 }
%struct.DecodedXLogRecord = type { i64, i8, ptr, i64, i64, %struct.XLogRecord, i16, i32, ptr, i32, i32, [0 x %struct.DecodedBkpBlock] }
%struct.XLogRecord = type { i32, i32, i64, i8, i8, i32 }
%struct.DecodedBkpBlock = type { i8, %struct.RelFileLocator, i32, i32, i32, i8, i8, i8, ptr, i16, i16, i16, i8, i8, ptr, i16, i16 }
%struct.RelFileLocator = type { i32, i32, i32 }
%struct.ReplicationSlot = type { i8, i8, i32, i8, i8, i32, i32, %struct.ReplicationSlotPersistentData, %struct.LWLock, %struct.ConditionVariable, i32, i64, i64, i64, i64, i64 }
%struct.ReplicationSlotPersistentData = type { %struct.nameData, i32, i32, i32, i32, i64, i32, i64, i64, i8, %struct.nameData, i8, i8 }
%struct.nameData = type { [64 x i8] }
%struct.LWLock = type { i16, %struct.pg_atomic_uint32, %struct.proclist_head }
%struct.pg_atomic_uint32 = type { i32 }
%struct.proclist_head = type { i32, i32 }
%struct.ConditionVariable = type { i8, %struct.proclist_head }
%struct.ReorderBufferChange = type { i64, i32, ptr, i16, %union.anon, %struct.dlist_node }
%union.anon = type { %struct.anon }
%struct.anon = type { %struct.RelFileLocator, i8, ptr, ptr }
%struct.dlist_node = type { ptr, ptr }

; Function Attrs: inlinehint nounwind uwtable
define internal zeroext i1 @FilterByOrigin(ptr noundef %0, i16 noundef zeroext %1) #3 {
  %3 = alloca i1, align 1
  %4 = alloca ptr, align 8
  %5 = alloca i16, align 2
  store ptr %0, ptr %4, align 8
  store i16 %1, ptr %5, align 2
  %6 = load ptr, ptr %4, align 8
  %7 = getelementptr inbounds nuw %struct.LogicalDecodingContext, ptr %6, i32 0, i32 6
  %8 = getelementptr inbounds nuw %struct.OutputPluginCallbacks, ptr %7, i32 0, i32 6
  %9 = load ptr, ptr %8, align 8
  %10 = icmp eq ptr %9, null
  br i1 %10, label %11, label %12

11:                                               ; preds = %2
  store i1 false, ptr %3, align 1
  br label %16

12:                                               ; preds = %2
  %13 = load ptr, ptr %4, align 8
  %14 = load i16, ptr %5, align 2
  %15 = call zeroext i1 @filter_by_origin_cb_wrapper(ptr noundef %13, i16 noundef zeroext %14)
  store i1 %15, ptr %3, align 1
  br label %16

16:                                               ; preds = %12, %11
  %17 = load i1, ptr %3, align 1
  ret i1 %17
}

; Function Attrs: nounwind uwtable
define internal void @DecodeSpecConfirm(ptr noundef %0, ptr noundef %1) #0 {
  %3 = alloca ptr, align 8
  %4 = alloca ptr, align 8
  %5 = alloca ptr, align 8
  %6 = alloca ptr, align 8
  %7 = alloca %struct.RelFileLocator, align 4
  %8 = alloca i32, align 4
  store ptr %0, ptr %3, align 8
  store ptr %1, ptr %4, align 8
  call void @llvm.lifetime.start.p0(i64 8, ptr %5) #8
  %9 = load ptr, ptr %4, align 8
  %10 = getelementptr inbounds nuw %struct.XLogRecordBuffer, ptr %9, i32 0, i32 2
  %11 = load ptr, ptr %10, align 8
  store ptr %11, ptr %5, align 8
  call void @llvm.lifetime.start.p0(i64 8, ptr %6) #8
  call void @llvm.lifetime.start.p0(i64 12, ptr %7) #8
  %12 = load ptr, ptr %5, align 8
  call void @XLogRecGetBlockTag(ptr noundef %12, i8 noundef zeroext 0, ptr noundef %7, ptr noundef null, ptr noundef null)
  %13 = getelementptr inbounds nuw %struct.RelFileLocator, ptr %7, i32 0, i32 1
  %14 = load i32, ptr %13, align 4
  %15 = load ptr, ptr %3, align 8
  %16 = getelementptr inbounds nuw %struct.LogicalDecodingContext, ptr %15, i32 0, i32 1
  %17 = load ptr, ptr %16, align 8
  %18 = getelementptr inbounds nuw %struct.ReplicationSlot, ptr %17, i32 0, i32 7
  %19 = getelementptr inbounds nuw %struct.ReplicationSlotPersistentData, ptr %18, i32 0, i32 1
  %20 = load i32, ptr %19, align 8
  %21 = icmp ne i32 %14, %20
  br i1 %21, label %22, label %23

22:                                               ; preds = %2
  store i32 1, ptr %8, align 4
  br label %65

23:                                               ; preds = %2
  %24 = load ptr, ptr %3, align 8
  %25 = load ptr, ptr %5, align 8
  %26 = getelementptr inbounds nuw %struct.XLogReaderState, ptr %25, i32 0, i32 11
  %27 = load ptr, ptr %26, align 8
  %28 = getelementptr inbounds nuw %struct.DecodedXLogRecord, ptr %27, i32 0, i32 6
  %29 = load i16, ptr %28, align 8
  %30 = call zeroext i1 @FilterByOrigin(ptr noundef %24, i16 noundef zeroext %29)
  br i1 %30, label %31, label %32

31:                                               ; preds = %23
  store i32 1, ptr %8, align 4
  br label %65

32:                                               ; preds = %23
  %33 = load ptr, ptr %3, align 8
  %34 = getelementptr inbounds nuw %struct.LogicalDecodingContext, ptr %33, i32 0, i32 3
  %35 = load ptr, ptr %34, align 8
  %36 = call ptr @ReorderBufferGetChange(ptr noundef %35)
  store ptr %36, ptr %6, align 8
  %37 = load ptr, ptr %6, align 8
  %38 = getelementptr inbounds nuw %struct.ReorderBufferChange, ptr %37, i32 0, i32 1
  store i32 9, ptr %38, align 8
  %39 = load ptr, ptr %5, align 8
  %40 = getelementptr inbounds nuw %struct.XLogReaderState, ptr %39, i32 0, i32 11
  %41 = load ptr, ptr %40, align 8
  %42 = getelementptr inbounds nuw %struct.DecodedXLogRecord, ptr %41, i32 0, i32 6
  %43 = load i16, ptr %42, align 8
  %44 = load ptr, ptr %6, align 8
  %45 = getelementptr inbounds nuw %struct.ReorderBufferChange, ptr %44, i32 0, i32 3
  store i16 %43, ptr %45, align 8
  %46 = load ptr, ptr %6, align 8
  %47 = getelementptr inbounds nuw %struct.ReorderBufferChange, ptr %46, i32 0, i32 4
  %48 = getelementptr inbounds nuw %struct.anon, ptr %47, i32 0, i32 0
  call void @llvm.memcpy.p0.p0.i64(ptr align 8 %48, ptr align 4 %7, i64 12, i1 false)
  %49 = load ptr, ptr %6, align 8
  %50 = getelementptr inbounds nuw %struct.ReorderBufferChange, ptr %49, i32 0, i32 4
  %51 = getelementptr inbounds nuw %struct.anon, ptr %50, i32 0, i32 1
  store i8 1, ptr %51, align 4
  %52 = load ptr, ptr %3, align 8
  %53 = getelementptr inbounds nuw %struct.LogicalDecodingContext, ptr %52, i32 0, i32 3
  %54 = load ptr, ptr %53, align 8
  %55 = load ptr, ptr %5, align 8
  %56 = getelementptr inbounds nuw %struct.XLogReaderState, ptr %55, i32 0, i32 11
  %57 = load ptr, ptr %56, align 8
  %58 = getelementptr inbounds nuw %struct.DecodedXLogRecord, ptr %57, i32 0, i32 5
  %59 = getelementptr inbounds nuw %struct.XLogRecord, ptr %58, i32 0, i32 1
  %60 = load i32, ptr %59, align 4
  %61 = load ptr, ptr %4, align 8
  %62 = getelementptr inbounds nuw %struct.XLogRecordBuffer, ptr %61, i32 0, i32 0
  %63 = load i64, ptr %62, align 8
  %64 = load ptr, ptr %6, align 8
  call void @ReorderBufferQueueChange(ptr noundef %54, i32 noundef %60, i64 noundef %63, ptr noundef %64, i1 noundef zeroext false)
  store i32 0, ptr %8, align 4
  br label %65

65:                                               ; preds = %32, %31, %22
  call void @llvm.lifetime.end.p0(i64 12, ptr %7) #8
  call void @llvm.lifetime.end.p0(i64 8, ptr %6) #8
  call void @llvm.lifetime.end.p0(i64 8, ptr %5) #8
  %66 = load i32, ptr %8, align 4
  switch i32 %66, label %68 [
    i32 0, label %67
    i32 1, label %67
  ]

67:                                               ; preds = %65, %65
  ret void

68:                                               ; preds = %65
  unreachable
}