; Function Attrs: nounwind uwtable
define internal fastcc void @DecodeSpecConfirm(ptr noundef %0, ptr noundef readonly captures(none) %1) unnamed_addr #0 {
  %3 = alloca %struct.RelFileLocator, align 4
  %4 = getelementptr inbounds nuw i8, ptr %1, i64 16
  %5 = load ptr, ptr %4, align 8
  call void @llvm.lifetime.start.p0(i64 12, ptr nonnull %3) #7
  call void @XLogRecGetBlockTag(ptr noundef %5, i8 noundef zeroext 0, ptr noundef nonnull %3, ptr noundef null, ptr noundef null) #7
  %6 = getelementptr inbounds nuw i8, ptr %3, i64 4
  %7 = load i32, ptr %6, align 4
  %8 = getelementptr inbounds nuw i8, ptr %0, i64 8
  %9 = load ptr, ptr %8, align 8
  %10 = getelementptr inbounds nuw i8, ptr %9, i64 88
  %11 = load i32, ptr %10, align 8
  %.not = icmp eq i32 %7, %11
  br i1 %.not, label %12, label %36

12:                                               ; preds = %2
  %13 = getelementptr inbounds nuw i8, ptr %5, i64 104
  %14 = getelementptr inbounds nuw i8, ptr %0, i64 96
  %15 = load ptr, ptr %14, align 8
  %16 = icmp eq ptr %15, null
  br i1 %16, label %FilterByOrigin.exit.thread, label %FilterByOrigin.exit

FilterByOrigin.exit:                              ; preds = %12
  %17 = load ptr, ptr %13, align 8
  %18 = getelementptr inbounds nuw i8, ptr %17, i64 64
  %19 = load i16, ptr %18, align 8
  %20 = call zeroext i1 @filter_by_origin_cb_wrapper(ptr noundef nonnull %0, i16 noundef zeroext %19) #7
  br i1 %20, label %36, label %FilterByOrigin.exit.thread

FilterByOrigin.exit.thread:                       ; preds = %12, %FilterByOrigin.exit
  %21 = getelementptr inbounds nuw i8, ptr %0, i64 24
  %22 = load ptr, ptr %21, align 8
  %23 = call ptr @ReorderBufferGetChange(ptr noundef %22) #7
  %24 = getelementptr inbounds nuw i8, ptr %23, i64 8
  store i32 9, ptr %24, align 8
  %25 = load ptr, ptr %13, align 8
  %26 = getelementptr inbounds nuw i8, ptr %25, i64 64
  %27 = load i16, ptr %26, align 8
  %28 = getelementptr inbounds nuw i8, ptr %23, i64 24
  store i16 %27, ptr %28, align 8
  %29 = getelementptr inbounds nuw i8, ptr %23, i64 32
  call void @llvm.memcpy.p0.p0.i64(ptr noundef nonnull align 8 dereferenceable(12) %29, ptr noundef nonnull align 4 dereferenceable(12) %3, i64 12, i1 false)
  %30 = getelementptr inbounds nuw i8, ptr %23, i64 44
  store i8 1, ptr %30, align 4
  %31 = load ptr, ptr %21, align 8
  %32 = load ptr, ptr %13, align 8
  %33 = getelementptr inbounds nuw i8, ptr %32, i64 44
  %34 = load i32, ptr %33, align 4
  %35 = load i64, ptr %1, align 8
  call void @ReorderBufferQueueChange(ptr noundef %31, i32 noundef %34, i64 noundef %35, ptr noundef %23, i1 noundef zeroext false) #7
  br label %36

36:                                               ; preds = %FilterByOrigin.exit, %2, %FilterByOrigin.exit.thread
  call void @llvm.lifetime.end.p0(i64 12, ptr nonnull %3) #7
  ret void
}